target datalayout = "e-m:e-p270:32:32-p271:32:32-p272:64:64-i64:64-i128:128-f80:128-n8:16:32:64-S128"
target triple = "x86_64-pc-linux-gnu"

; Function Attrs: nounwind uwtable
define i64 @BrotliEncoderMaxCompressedSize(i64 noundef %0) #0 {
  %2 = alloca i64, align 8
  %3 = alloca i64, align 8
  %4 = alloca i64, align 8
  %5 = alloca i64, align 8
  %6 = alloca i64, align 8
  %7 = alloca i32, align 4
  store i64 %0, ptr %3, align 8, !tbaa !75
  call void @llvm.lifetime.start.p0(i64 8, ptr %4) #10
  %8 = load i64, ptr %3, align 8, !tbaa !75
  %9 = lshr i64 %8, 14
  store i64 %9, ptr %4, align 8, !tbaa !75
  call void @llvm.lifetime.start.p0(i64 8, ptr %5) #10
  %10 = load i64, ptr %4, align 8, !tbaa !75
  %11 = mul i64 4, %10
  %12 = add i64 2, %11
  %13 = add i64 %12, 3
  %14 = add i64 %13, 1
  store i64 %14, ptr %5, align 8, !tbaa !75
  call void @llvm.lifetime.start.p0(i64 8, ptr %6) #10
  %15 = load i64, ptr %3, align 8, !tbaa !75
  %16 = load i64, ptr %5, align 8, !tbaa !75
  %17 = add i64 %15, %16
  store i64 %17, ptr %6, align 8, !tbaa !75
  %18 = load i64, ptr %3, align 8, !tbaa !75
  %19 = icmp eq i64 %18, 0
  br i1 %19, label %20, label %21

20:                                               ; preds = %1
  store i64 2, ptr %2, align 8
  store i32 1, ptr %7, align 4
  br label %30

21:                                               ; preds = %1
  %22 = load i64, ptr %6, align 8, !tbaa !75
  %23 = load i64, ptr %3, align 8, !tbaa !75
  %24 = icmp ult i64 %22, %23
  br i1 %24, label %25, label %26

25:                                               ; preds = %21
  br label %28

26:                                               ; preds = %21
  %27 = load i64, ptr %6, align 8, !tbaa !75
  br label %28

28:                                               ; preds = %26, %25
  %29 = phi i64 [ 0, %25 ], [ %27, %26 ]
  store i64 %29, ptr %2, align 8
  store i32 1, ptr %7, align 4
  br label %30

30:                                               ; preds = %28, %20
  call void @llvm.lifetime.end.p0(i64 8, ptr %6) #10
  call void @llvm.lifetime.end.p0(i64 8, ptr %5) #10
  call void @llvm.lifetime.end.p0(i64 8, ptr %4) #10
  %31 = load i64, ptr %2, align 8
  ret i64 %31
}