; Function Attrs: mustprogress nofree norecurse nosync nounwind willreturn memory(none) uwtable
define i64 @BrotliEncoderMaxCompressedSize(i64 noundef %0) local_unnamed_addr #4 {
  %2 = icmp eq i64 %0, 0
  br i1 %2, label %10, label %3

3:                                                ; preds = %1
  %4 = lshr i64 %0, 12
  %5 = and i64 %4, 4503599627370492
  %6 = add i64 %0, 6
  %7 = add i64 %6, %5
  %8 = icmp ult i64 %7, %0
  %9 = select i1 %8, i64 0, i64 %7
  br label %10

10:                                               ; preds = %1, %3
  %.0 = phi i64 [ %9, %3 ], [ 2, %1 ]
  ret i64 %.0
}